target datalayout = "e-m:e-p270:32:32-p271:32:32-p272:64:64-i64:64-i128:128-f80:128-n8:16:32:64-S128"
target triple = "x86_64-pc-linux-gnu"

%struct.H5O_ainfo_t = type { i8, i8, i32, i64, i64, i64, i64 }
%struct.H5A_bt2_ud_common_t = type { ptr, ptr, ptr, ptr, i32, i8, i32, ptr, ptr }

@H5A_init_g = external global i8, align 1
@H5_libterm_g = external global i8, align 1
@.str = private unnamed_addr constant [102 x i8] c"generated/home/dtcxzyw/WorkSpace/Projects/compilers/llvm-opt-benchmark/bench/hdf5/hdf5/src/H5Adense.c\00", align 1
@H5E_ATTR_g = external global i64, align 8
@H5E_CLOSEERROR_g = external global i64, align 8
@.str.7 = private unnamed_addr constant [25 x i8] c"can't close fractal heap\00", align 1
@H5E_CANTOPENOBJ_g = external global i64, align 8
@.str.10 = private unnamed_addr constant [28 x i8] c"unable to open fractal heap\00", align 1
@H5E_CANTDELETE_g = external global i64, align 8
@__func__.H5A__dense_delete = private unnamed_addr constant [18 x i8] c"H5A__dense_delete\00", align 1
@.str.43 = private unnamed_addr constant [42 x i8] c"unable to delete v2 B-tree for name index\00", align 1
@.str.44 = private unnamed_addr constant [52 x i8] c"unable to delete v2 B-tree for creation order index\00", align 1
@.str.45 = private unnamed_addr constant [30 x i8] c"unable to delete fractal heap\00", align 1

; Function Attrs: nounwind uwtable
define i32 @H5A__dense_delete(ptr noundef %0, ptr noundef %1) #0 {
  %3 = alloca ptr, align 8
  %4 = alloca ptr, align 8
  %5 = alloca %struct.H5A_bt2_ud_common_t, align 8
  %6 = alloca ptr, align 8
  %7 = alloca i32, align 4
  %8 = alloca i8, align 1
  store ptr %0, ptr %3, align 8, !tbaa !3
  store ptr %1, ptr %4, align 8, !tbaa !8
  call void @llvm.lifetime.start.p0(i64 64, ptr %5) #7
  call void @llvm.lifetime.start.p0(i64 8, ptr %6) #7
  store ptr null, ptr %6, align 8, !tbaa !10
  call void @llvm.lifetime.start.p0(i64 4, ptr %7) #7
  store i32 0, ptr %7, align 4, !tbaa !14
  call void @llvm.lifetime.start.p0(i64 1, ptr %8) #7
  store i8 0, ptr %8, align 1, !tbaa !16
  %9 = load i8, ptr @H5A_init_g, align 1, !tbaa !16, !range !18, !noundef !19
  %10 = trunc i8 %9 to i1
  br i1 %10, label %15, label %11

11:                                               ; preds = %2
  %12 = load i8, ptr @H5_libterm_g, align 1, !tbaa !16, !range !18, !noundef !19
  %13 = trunc i8 %12 to i1
  %14 = xor i1 %13, true
  br label %15

15:                                               ; preds = %11, %2
  %16 = phi i1 [ true, %2 ], [ %14, %11 ]
  %17 = xor i1 %16, true
  %18 = xor i1 %17, true
  %19 = zext i1 %18 to i32
  %20 = sext i32 %19 to i64
  %21 = call i64 @llvm.expect.i64(i64 %20, i64 1)
  %22 = icmp ne i64 %21, 0
  br i1 %22, label %23, label %197

23:                                               ; preds = %15
  %24 = load ptr, ptr %3, align 8, !tbaa !3
  %25 = load ptr, ptr %4, align 8, !tbaa !8
  %26 = getelementptr inbounds nuw %struct.H5O_ainfo_t, ptr %25, i32 0, i32 5
  %27 = load i64, ptr %26, align 8, !tbaa !48
  %28 = call ptr @H5HF_open(ptr noundef %24, i64 noundef %27)
  store ptr %28, ptr %6, align 8, !tbaa !10
  %29 = icmp eq ptr null, %28
  br i1 %29, label %30, label %49

30:                                               ; preds = %23
  br label %31

31:                                               ; preds = %30
  br label %32

32:                                               ; preds = %31
  br label %33

33:                                               ; preds = %32
  %34 = load i64, ptr @H5E_ATTR_g, align 8, !tbaa !34
  %35 = load i64, ptr @H5E_CANTOPENOBJ_g, align 8, !tbaa !34
  %36 = call i32 (ptr, ptr, i32, i64, i64, ptr, ...) @H5E_printf_stack(ptr noundef @.str, ptr noundef @__func__.H5A__dense_delete, i32 noundef 1793, i64 noundef %34, i64 noundef %35, ptr noundef @.str.10)
  br label %37

37:                                               ; preds = %33
  br label %38

38:                                               ; preds = %37
  store i8 1, ptr %8, align 1, !tbaa !16
  %39 = load i8, ptr %8, align 1, !tbaa !16, !range !18, !noundef !19
  %40 = trunc i8 %39 to i1
  %41 = zext i1 %40 to i8
  store i8 %41, ptr %8, align 1, !tbaa !16
  br label %42

42:                                               ; preds = %38
  br label %43

43:                                               ; preds = %42
  br label %44

44:                                               ; preds = %43
  store i32 -1, ptr %7, align 4, !tbaa !14
  br label %173

45:                                               ; No predecessors!
  br label %46

46:                                               ; preds = %45
  br label %47

47:                                               ; preds = %46
  br label %48

48:                                               ; preds = %47
  br label %49

49:                                               ; preds = %48, %23
  %50 = load ptr, ptr %3, align 8, !tbaa !3
  %51 = getelementptr inbounds nuw %struct.H5A_bt2_ud_common_t, ptr %5, i32 0, i32 0
  store ptr %50, ptr %51, align 8, !tbaa !50
  %52 = load ptr, ptr %6, align 8, !tbaa !10
  %53 = getelementptr inbounds nuw %struct.H5A_bt2_ud_common_t, ptr %5, i32 0, i32 1
  store ptr %52, ptr %53, align 8, !tbaa !52
  %54 = getelementptr inbounds nuw %struct.H5A_bt2_ud_common_t, ptr %5, i32 0, i32 2
  store ptr null, ptr %54, align 8, !tbaa !53
  %55 = getelementptr inbounds nuw %struct.H5A_bt2_ud_common_t, ptr %5, i32 0, i32 3
  store ptr null, ptr %55, align 8, !tbaa !54
  %56 = getelementptr inbounds nuw %struct.H5A_bt2_ud_common_t, ptr %5, i32 0, i32 4
  store i32 0, ptr %56, align 8, !tbaa !55
  %57 = getelementptr inbounds nuw %struct.H5A_bt2_ud_common_t, ptr %5, i32 0, i32 5
  store i8 0, ptr %57, align 4, !tbaa !56
  %58 = getelementptr inbounds nuw %struct.H5A_bt2_ud_common_t, ptr %5, i32 0, i32 7
  store ptr null, ptr %58, align 8, !tbaa !58
  %59 = getelementptr inbounds nuw %struct.H5A_bt2_ud_common_t, ptr %5, i32 0, i32 8
  store ptr null, ptr %59, align 8, !tbaa !59
  %60 = load ptr, ptr %3, align 8, !tbaa !3
  %61 = load ptr, ptr %4, align 8, !tbaa !8
  %62 = getelementptr inbounds nuw %struct.H5O_ainfo_t, ptr %61, i32 0, i32 6
  %63 = load i64, ptr %62, align 8, !tbaa !49
  %64 = call i32 @H5B2_delete(ptr noundef %60, i64 noundef %63, ptr noundef null, ptr noundef @H5A__dense_delete_bt2_cb, ptr noundef %5)
  %65 = icmp slt i32 %64, 0
  br i1 %65, label %66, label %85

66:                                               ; preds = %49
  br label %67

67:                                               ; preds = %66
  br label %68

68:                                               ; preds = %67
  br label %69

69:                                               ; preds = %68
  %70 = load i64, ptr @H5E_ATTR_g, align 8, !tbaa !34
  %71 = load i64, ptr @H5E_CANTDELETE_g, align 8, !tbaa !34
  %72 = call i32 (ptr, ptr, i32, i64, i64, ptr, ...) @H5E_printf_stack(ptr noundef @.str, ptr noundef @__func__.H5A__dense_delete, i32 noundef 1807, i64 noundef %70, i64 noundef %71, ptr noundef @.str.43)
  br label %73

73:                                               ; preds = %69
  br label %74

74:                                               ; preds = %73
  store i8 1, ptr %8, align 1, !tbaa !16
  %75 = load i8, ptr %8, align 1, !tbaa !16, !range !18, !noundef !19
  %76 = trunc i8 %75 to i1
  %77 = zext i1 %76 to i8
  store i8 %77, ptr %8, align 1, !tbaa !16
  br label %78

78:                                               ; preds = %74
  br label %79

79:                                               ; preds = %78
  br label %80

80:                                               ; preds = %79
  store i32 -1, ptr %7, align 4, !tbaa !14
  br label %173

81:                                               ; No predecessors!
  br label %82

82:                                               ; preds = %81
  br label %83

83:                                               ; preds = %82
  br label %84

84:                                               ; preds = %83
  br label %85

85:                                               ; preds = %84, %49
  %86 = load ptr, ptr %4, align 8, !tbaa !8
  %87 = getelementptr inbounds nuw %struct.H5O_ainfo_t, ptr %86, i32 0, i32 6
  store i64 -1, ptr %87, align 8, !tbaa !49
  %88 = load ptr, ptr %6, align 8, !tbaa !10
  %89 = call i32 @H5HF_close(ptr noundef %88)
  %90 = icmp slt i32 %89, 0
  br i1 %90, label %91, label %110

91:                                               ; preds = %85
  br label %92

92:                                               ; preds = %91
  br label %93

93:                                               ; preds = %92
  br label %94

94:                                               ; preds = %93
  %95 = load i64, ptr @H5E_ATTR_g, align 8, !tbaa !34
  %96 = load i64, ptr @H5E_CLOSEERROR_g, align 8, !tbaa !34
  %97 = call i32 (ptr, ptr, i32, i64, i64, ptr, ...) @H5E_printf_stack(ptr noundef @.str, ptr noundef @__func__.H5A__dense_delete, i32 noundef 1812, i64 noundef %95, i64 noundef %96, ptr noundef @.str.7)
  br label %98

98:                                               ; preds = %94
  br label %99

99:                                               ; preds = %98
  store i8 1, ptr %8, align 1, !tbaa !16
  %100 = load i8, ptr %8, align 1, !tbaa !16, !range !18, !noundef !19
  %101 = trunc i8 %100 to i1
  %102 = zext i1 %101 to i8
  store i8 %102, ptr %8, align 1, !tbaa !16
  br label %103

103:                                              ; preds = %99
  br label %104

104:                                              ; preds = %103
  br label %105

105:                                              ; preds = %104
  store i32 -1, ptr %7, align 4, !tbaa !14
  br label %173

106:                                              ; No predecessors!
  br label %107

107:                                              ; preds = %106
  br label %108

108:                                              ; preds = %107
  br label %109

109:                                              ; preds = %108
  br label %110

110:                                              ; preds = %109, %85
  store ptr null, ptr %6, align 8, !tbaa !10
  %111 = load ptr, ptr %4, align 8, !tbaa !8
  %112 = getelementptr inbounds nuw %struct.H5O_ainfo_t, ptr %111, i32 0, i32 3
  %113 = load i64, ptr %112, align 8, !tbaa !90
  %114 = icmp ne i64 %113, -1
  br i1 %114, label %115, label %144

115:                                              ; preds = %110
  %116 = load ptr, ptr %3, align 8, !tbaa !3
  %117 = load ptr, ptr %4, align 8, !tbaa !8
  %118 = getelementptr inbounds nuw %struct.H5O_ainfo_t, ptr %117, i32 0, i32 3
  %119 = load i64, ptr %118, align 8, !tbaa !90
  %120 = call i32 @H5B2_delete(ptr noundef %116, i64 noundef %119, ptr noundef null, ptr noundef null, ptr noundef null)
  %121 = icmp slt i32 %120, 0
  br i1 %121, label %122, label %141

122:                                              ; preds = %115
  br label %123

123:                                              ; preds = %122
  br label %124

124:                                              ; preds = %123
  br label %125

125:                                              ; preds = %124
  %126 = load i64, ptr @H5E_ATTR_g, align 8, !tbaa !34
  %127 = load i64, ptr @H5E_CANTDELETE_g, align 8, !tbaa !34
  %128 = call i32 (ptr, ptr, i32, i64, i64, ptr, ...) @H5E_printf_stack(ptr noundef @.str, ptr noundef @__func__.H5A__dense_delete, i32 noundef 1820, i64 noundef %126, i64 noundef %127, ptr noundef @.str.44)
  br label %129

129:                                              ; preds = %125
  br label %130

130:                                              ; preds = %129
  store i8 1, ptr %8, align 1, !tbaa !16
  %131 = load i8, ptr %8, align 1, !tbaa !16, !range !18, !noundef !19
  %132 = trunc i8 %131 to i1
  %133 = zext i1 %132 to i8
  store i8 %133, ptr %8, align 1, !tbaa !16
  br label %134

134:                                              ; preds = %130
  br label %135

135:                                              ; preds = %134
  br label %136

136:                                              ; preds = %135
  store i32 -1, ptr %7, align 4, !tbaa !14
  br label %173

137:                                              ; No predecessors!
  br label %138

138:                                              ; preds = %137
  br label %139

139:                                              ; preds = %138
  br label %140

140:                                              ; preds = %139
  br label %141

141:                                              ; preds = %140, %115
  %142 = load ptr, ptr %4, align 8, !tbaa !8
  %143 = getelementptr inbounds nuw %struct.H5O_ainfo_t, ptr %142, i32 0, i32 3
  store i64 -1, ptr %143, align 8, !tbaa !90
  br label %144

144:                                              ; preds = %141, %110
  %145 = load ptr, ptr %3, align 8, !tbaa !3
  %146 = load ptr, ptr %4, align 8, !tbaa !8
  %147 = getelementptr inbounds nuw %struct.H5O_ainfo_t, ptr %146, i32 0, i32 5
  %148 = load i64, ptr %147, align 8, !tbaa !48
  %149 = call i32 @H5HF_delete(ptr noundef %145, i64 noundef %148)
  %150 = icmp slt i32 %149, 0
  br i1 %150, label %151, label %170

151:                                              ; preds = %144
  br label %152

152:                                              ; preds = %151
  br label %153

153:                                              ; preds = %152
  br label %154

154:                                              ; preds = %153
  %155 = load i64, ptr @H5E_ATTR_g, align 8, !tbaa !34
  %156 = load i64, ptr @H5E_CANTDELETE_g, align 8, !tbaa !34
  %157 = call i32 (ptr, ptr, i32, i64, i64, ptr, ...) @H5E_printf_stack(ptr noundef @.str, ptr noundef @__func__.H5A__dense_delete, i32 noundef 1826, i64 noundef %155, i64 noundef %156, ptr noundef @.str.45)
  br label %158

158:                                              ; preds = %154
  br label %159

159:                                              ; preds = %158
  store i8 1, ptr %8, align 1, !tbaa !16
  %160 = load i8, ptr %8, align 1, !tbaa !16, !range !18, !noundef !19
  %161 = trunc i8 %160 to i1
  %162 = zext i1 %161 to i8
  store i8 %162, ptr %8, align 1, !tbaa !16
  br label %163

163:                                              ; preds = %159
  br label %164

164:                                              ; preds = %163
  br label %165

165:                                              ; preds = %164
  store i32 -1, ptr %7, align 4, !tbaa !14
  br label %173

166:                                              ; No predecessors!
  br label %167

167:                                              ; preds = %166
  br label %168

168:                                              ; preds = %167
  br label %169

169:                                              ; preds = %168
  br label %170

170:                                              ; preds = %169, %144
  %171 = load ptr, ptr %4, align 8, !tbaa !8
  %172 = getelementptr inbounds nuw %struct.H5O_ainfo_t, ptr %171, i32 0, i32 5
  store i64 -1, ptr %172, align 8, !tbaa !48
  br label %173

173:                                              ; preds = %170, %165, %136, %105, %80, %44
  %174 = load ptr, ptr %6, align 8, !tbaa !10
  %175 = icmp ne ptr %174, null
  br i1 %175, label %176, label %196

176:                                              ; preds = %173
  %177 = load ptr, ptr %6, align 8, !tbaa !10
  %178 = call i32 @H5HF_close(ptr noundef %177)
  %179 = icmp slt i32 %178, 0
  br i1 %179, label %180, label %196

180:                                              ; preds = %176
  br label %181

181:                                              ; preds = %180
  br label %182

182:                                              ; preds = %181
  br label %183

183:                                              ; preds = %182
  %184 = load i64, ptr @H5E_ATTR_g, align 8, !tbaa !34
  %185 = load i64, ptr @H5E_CLOSEERROR_g, align 8, !tbaa !34
  %186 = call i32 (ptr, ptr, i32, i64, i64, ptr, ...) @H5E_printf_stack(ptr noundef @.str, ptr noundef @__func__.H5A__dense_delete, i32 noundef 1832, i64 noundef %184, i64 noundef %185, ptr noundef @.str.7)
  br label %187

187:                                              ; preds = %183
  br label %188

188:                                              ; preds = %187
  store i8 1, ptr %8, align 1, !tbaa !16
  %189 = load i8, ptr %8, align 1, !tbaa !16, !range !18, !noundef !19
  %190 = trunc i8 %189 to i1
  %191 = zext i1 %190 to i8
  store i8 %191, ptr %8, align 1, !tbaa !16
  br label %192

192:                                              ; preds = %188
  br label %193

193:                                              ; preds = %192
  store i32 -1, ptr %7, align 4, !tbaa !14
  br label %194

194:                                              ; preds = %193
  br label %195

195:                                              ; preds = %194
  br label %196

196:                                              ; preds = %195, %176, %173
  br label %197

197:                                              ; preds = %196, %15
  %198 = load i32, ptr %7, align 4, !tbaa !14
  call void @llvm.lifetime.end.p0(i64 1, ptr %8) #7
  call void @llvm.lifetime.end.p0(i64 4, ptr %7) #7
  call void @llvm.lifetime.end.p0(i64 8, ptr %6) #7
  call void @llvm.lifetime.end.p0(i64 64, ptr %5) #7
  ret i32 %198
}