; Function Attrs: nounwind uwtable
define range(i32 -1, 1) i32 @H5A__dense_delete(ptr noundef %0, ptr noundef captures(none) %1) local_unnamed_addr #0 {
  %3 = alloca %struct.H5A_bt2_ud_common_t, align 8
  call void @llvm.lifetime.start.p0(i64 64, ptr nonnull %3) #7
  %4 = load i8, ptr @H5A_init_g, align 1, !tbaa !3, !range !7, !noundef !8
  %5 = trunc nuw i8 %4 to i1
  %6 = load i8, ptr @H5_libterm_g, align 1, !range !7
  %7 = trunc nuw i8 %6 to i1
  %8 = xor i1 %7, true
  %9 = select i1 %5, i1 true, i1 %8
  br i1 %9, label %10, label %.thread, !prof !9

10:                                               ; preds = %2
  %11 = getelementptr inbounds nuw i8, ptr %1, i64 24
  %12 = load i64, ptr %11, align 8, !tbaa !39
  %13 = tail call ptr @H5HF_open(ptr noundef %0, i64 noundef %12) #7
  %14 = icmp eq ptr %13, null
  br i1 %14, label %15, label %19

15:                                               ; preds = %10
  %16 = load i64, ptr @H5E_ATTR_g, align 8, !tbaa !27
  %17 = load i64, ptr @H5E_CANTOPENOBJ_g, align 8, !tbaa !27
  %18 = tail call i32 (ptr, ptr, i32, i64, i64, ptr, ...) @H5E_printf_stack(ptr noundef nonnull @.str, ptr noundef nonnull @__func__.H5A__dense_delete, i32 noundef 1793, i64 noundef %16, i64 noundef %17, ptr noundef nonnull @.str.10) #7
  br label %.thread

19:                                               ; preds = %10
  store ptr %0, ptr %3, align 8, !tbaa !41
  %20 = getelementptr inbounds nuw i8, ptr %3, i64 8
  store ptr %13, ptr %20, align 8, !tbaa !45
  %21 = getelementptr inbounds nuw i8, ptr %3, i64 16
  %22 = getelementptr inbounds nuw i8, ptr %3, i64 48
  %23 = getelementptr inbounds nuw i8, ptr %1, i64 32
  call void @llvm.memset.p0.i64(ptr noundef nonnull align 8 dereferenceable(21) %21, i8 0, i64 21, i1 false)
  call void @llvm.memset.p0.i64(ptr noundef nonnull align 8 dereferenceable(16) %22, i8 0, i64 16, i1 false)
  %24 = load i64, ptr %23, align 8, !tbaa !40
  %25 = call i32 @H5B2_delete(ptr noundef %0, i64 noundef %24, ptr noundef null, ptr noundef nonnull @H5A__dense_delete_bt2_cb, ptr noundef nonnull %3) #7
  %26 = icmp slt i32 %25, 0
  br i1 %26, label %27, label %31

27:                                               ; preds = %19
  %28 = load i64, ptr @H5E_ATTR_g, align 8, !tbaa !27
  %29 = load i64, ptr @H5E_CANTDELETE_g, align 8, !tbaa !27
  %30 = call i32 (ptr, ptr, i32, i64, i64, ptr, ...) @H5E_printf_stack(ptr noundef nonnull @.str, ptr noundef nonnull @__func__.H5A__dense_delete, i32 noundef 1807, i64 noundef %28, i64 noundef %29, ptr noundef nonnull @.str.43) #7
  br label %58

31:                                               ; preds = %19
  store i64 -1, ptr %23, align 8, !tbaa !40
  %32 = call i32 @H5HF_close(ptr noundef nonnull %13) #7
  %33 = icmp slt i32 %32, 0
  br i1 %33, label %34, label %38

34:                                               ; preds = %31
  %35 = load i64, ptr @H5E_ATTR_g, align 8, !tbaa !27
  %36 = load i64, ptr @H5E_CLOSEERROR_g, align 8, !tbaa !27
  %37 = call i32 (ptr, ptr, i32, i64, i64, ptr, ...) @H5E_printf_stack(ptr noundef nonnull @.str, ptr noundef nonnull @__func__.H5A__dense_delete, i32 noundef 1812, i64 noundef %35, i64 noundef %36, ptr noundef nonnull @.str.7) #7
  br label %58

38:                                               ; preds = %31
  %39 = getelementptr inbounds nuw i8, ptr %1, i64 8
  %40 = load i64, ptr %39, align 8, !tbaa !74
  %.not = icmp eq i64 %40, -1
  br i1 %.not, label %49, label %41

41:                                               ; preds = %38
  %42 = call i32 @H5B2_delete(ptr noundef %0, i64 noundef %40, ptr noundef null, ptr noundef null, ptr noundef null) #7
  %43 = icmp slt i32 %42, 0
  br i1 %43, label %44, label %48

44:                                               ; preds = %41
  %45 = load i64, ptr @H5E_ATTR_g, align 8, !tbaa !27
  %46 = load i64, ptr @H5E_CANTDELETE_g, align 8, !tbaa !27
  %47 = call i32 (ptr, ptr, i32, i64, i64, ptr, ...) @H5E_printf_stack(ptr noundef nonnull @.str, ptr noundef nonnull @__func__.H5A__dense_delete, i32 noundef 1820, i64 noundef %45, i64 noundef %46, ptr noundef nonnull @.str.44) #7
  br label %.thread

48:                                               ; preds = %41
  store i64 -1, ptr %39, align 8, !tbaa !74
  br label %49

49:                                               ; preds = %48, %38
  %50 = load i64, ptr %11, align 8, !tbaa !39
  %51 = call i32 @H5HF_delete(ptr noundef %0, i64 noundef %50) #7
  %52 = icmp slt i32 %51, 0
  br i1 %52, label %53, label %57

53:                                               ; preds = %49
  %54 = load i64, ptr @H5E_ATTR_g, align 8, !tbaa !27
  %55 = load i64, ptr @H5E_CANTDELETE_g, align 8, !tbaa !27
  %56 = call i32 (ptr, ptr, i32, i64, i64, ptr, ...) @H5E_printf_stack(ptr noundef nonnull @.str, ptr noundef nonnull @__func__.H5A__dense_delete, i32 noundef 1826, i64 noundef %54, i64 noundef %55, ptr noundef nonnull @.str.45) #7
  br label %.thread

57:                                               ; preds = %49
  store i64 -1, ptr %11, align 8, !tbaa !39
  br label %.thread

58:                                               ; preds = %27, %34
  %59 = call i32 @H5HF_close(ptr noundef nonnull %13) #7
  %60 = icmp slt i32 %59, 0
  br i1 %60, label %61, label %.thread

61:                                               ; preds = %58
  %62 = load i64, ptr @H5E_ATTR_g, align 8, !tbaa !27
  %63 = load i64, ptr @H5E_CLOSEERROR_g, align 8, !tbaa !27
  %64 = call i32 (ptr, ptr, i32, i64, i64, ptr, ...) @H5E_printf_stack(ptr noundef nonnull @.str, ptr noundef nonnull @__func__.H5A__dense_delete, i32 noundef 1832, i64 noundef %62, i64 noundef %63, ptr noundef nonnull @.str.7) #7
  br label %.thread

.thread:                                          ; preds = %57, %53, %44, %15, %58, %61, %2
  %.0 = phi i32 [ -1, %61 ], [ -1, %58 ], [ 0, %2 ], [ 0, %57 ], [ -1, %53 ], [ -1, %44 ], [ -1, %15 ]
  call void @llvm.lifetime.end.p0(i64 64, ptr nonnull %3) #7
  ret i32 %.0
}